(dp0
S'bins'
p1
(lp2
(dp3
S'cut'
p4
S'tag_Ele_pt > 30 && abs(tag_sc_eta) < 2.17 && el_q*tag_Ele_q < 0 && truePU >= 0.000000 && truePU < 20.000000 && fabs(el_sc_eta) >= 0.000000 && fabs(el_sc_eta) < 1.444200 && tag_Ele_trigMVA > 0.92 && sqrt( 2*event_met_pfmet*tag_Ele_pt*(1-cos(event_met_pfphi-tag_Ele_phi))) < 45 '
p5
sS'name'
p6
S'bin00_truePU_0p00To20p00_fabs(el_sc_eta)_0p00To1p44'
p7
sS'vars'
p8
(dp9
S'fabs(el_sc_eta)'
p10
(dp11
S'max'
p12
F1.4441999999999999
sS'min'
p13
F0.0
ssS'truePU'
p14
(dp15
g12
I20
sg13
I0
sssS'title'
p16
S'; 0.000 < truePU < 20.000; 0.000 < fabs(el_sc_eta) < 1.444'
p17
sa(dp18
g4
S'tag_Ele_pt > 30 && abs(tag_sc_eta) < 2.17 && el_q*tag_Ele_q < 0 && truePU >= 20.000000 && truePU < 30.000000 && fabs(el_sc_eta) >= 0.000000 && fabs(el_sc_eta) < 1.444200 && tag_Ele_trigMVA > 0.92 && sqrt( 2*event_met_pfmet*tag_Ele_pt*(1-cos(event_met_pfphi-tag_Ele_phi))) < 45 '
p19
sg6
S'bin01_truePU_20p00To30p00_fabs(el_sc_eta)_0p00To1p44'
p20
sg8
(dp21
g10
(dp22
g12
F1.4441999999999999
sg13
F0.0
ssg14
(dp23
g12
I30
sg13
I20
sssg16
S'; 20.000 < truePU < 30.000; 0.000 < fabs(el_sc_eta) < 1.444'
p24
sa(dp25
g4
S'tag_Ele_pt > 30 && abs(tag_sc_eta) < 2.17 && el_q*tag_Ele_q < 0 && truePU >= 30.000000 && truePU < 40.000000 && fabs(el_sc_eta) >= 0.000000 && fabs(el_sc_eta) < 1.444200 && tag_Ele_trigMVA > 0.92 && sqrt( 2*event_met_pfmet*tag_Ele_pt*(1-cos(event_met_pfphi-tag_Ele_phi))) < 45 '
p26
sg6
S'bin02_truePU_30p00To40p00_fabs(el_sc_eta)_0p00To1p44'
p27
sg8
(dp28
g10
(dp29
g12
F1.4441999999999999
sg13
F0.0
ssg14
(dp30
g12
I40
sg13
I30
sssg16
S'; 30.000 < truePU < 40.000; 0.000 < fabs(el_sc_eta) < 1.444'
p31
sa(dp32
g4
S'tag_Ele_pt > 30 && abs(tag_sc_eta) < 2.17 && el_q*tag_Ele_q < 0 && truePU >= 40.000000 && truePU < 50.000000 && fabs(el_sc_eta) >= 0.000000 && fabs(el_sc_eta) < 1.444200 && tag_Ele_trigMVA > 0.92 && sqrt( 2*event_met_pfmet*tag_Ele_pt*(1-cos(event_met_pfphi-tag_Ele_phi))) < 45 '
p33
sg6
S'bin03_truePU_40p00To50p00_fabs(el_sc_eta)_0p00To1p44'
p34
sg8
(dp35
g10
(dp36
g12
F1.4441999999999999
sg13
F0.0
ssg14
(dp37
g12
I50
sg13
I40
sssg16
S'; 40.000 < truePU < 50.000; 0.000 < fabs(el_sc_eta) < 1.444'
p38
sa(dp39
g4
S'tag_Ele_pt > 30 && abs(tag_sc_eta) < 2.17 && el_q*tag_Ele_q < 0 && truePU >= 50.000000 && truePU < 60.000000 && fabs(el_sc_eta) >= 0.000000 && fabs(el_sc_eta) < 1.444200 && tag_Ele_trigMVA > 0.92 && sqrt( 2*event_met_pfmet*tag_Ele_pt*(1-cos(event_met_pfphi-tag_Ele_phi))) < 45 '
p40
sg6
S'bin04_truePU_50p00To60p00_fabs(el_sc_eta)_0p00To1p44'
p41
sg8
(dp42
g10
(dp43
g12
F1.4441999999999999
sg13
F0.0
ssg14
(dp44
g12
I60
sg13
I50
sssg16
S'; 50.000 < truePU < 60.000; 0.000 < fabs(el_sc_eta) < 1.444'
p45
sa(dp46
g4
S'tag_Ele_pt > 30 && abs(tag_sc_eta) < 2.17 && el_q*tag_Ele_q < 0 && truePU >= 60.000000 && truePU < 100.000000 && fabs(el_sc_eta) >= 0.000000 && fabs(el_sc_eta) < 1.444200 && tag_Ele_trigMVA > 0.92 && sqrt( 2*event_met_pfmet*tag_Ele_pt*(1-cos(event_met_pfphi-tag_Ele_phi))) < 45 '
p47
sg6
S'bin05_truePU_60p00To100p00_fabs(el_sc_eta)_0p00To1p44'
p48
sg8
(dp49
g10
(dp50
g12
F1.4441999999999999
sg13
F0.0
ssg14
(dp51
g12
I100
sg13
I60
sssg16
S'; 60.000 < truePU < 100.000; 0.000 < fabs(el_sc_eta) < 1.444'
p52
sa(dp53
g4
S'tag_Ele_pt > 30 && abs(tag_sc_eta) < 2.17 && el_q*tag_Ele_q < 0 && truePU >= 0.000000 && truePU < 20.000000 && fabs(el_sc_eta) >= 1.444200 && fabs(el_sc_eta) < 2.500000 && tag_Ele_trigMVA > 0.92 && sqrt( 2*event_met_pfmet*tag_Ele_pt*(1-cos(event_met_pfphi-tag_Ele_phi))) < 45 '
p54
sg6
S'bin06_truePU_0p00To20p00_fabs(el_sc_eta)_1p44To2p50'
p55
sg8
(dp56
g10
(dp57
g12
F2.5
sg13
F1.4441999999999999
ssg14
(dp58
g12
I20
sg13
I0
sssg16
S'; 0.000 < truePU < 20.000; 1.444 < fabs(el_sc_eta) < 2.500'
p59
sa(dp60
g4
S'tag_Ele_pt > 30 && abs(tag_sc_eta) < 2.17 && el_q*tag_Ele_q < 0 && truePU >= 20.000000 && truePU < 30.000000 && fabs(el_sc_eta) >= 1.444200 && fabs(el_sc_eta) < 2.500000 && tag_Ele_trigMVA > 0.92 && sqrt( 2*event_met_pfmet*tag_Ele_pt*(1-cos(event_met_pfphi-tag_Ele_phi))) < 45 '
p61
sg6
S'bin07_truePU_20p00To30p00_fabs(el_sc_eta)_1p44To2p50'
p62
sg8
(dp63
g10
(dp64
g12
F2.5
sg13
F1.4441999999999999
ssg14
(dp65
g12
I30
sg13
I20
sssg16
S'; 20.000 < truePU < 30.000; 1.444 < fabs(el_sc_eta) < 2.500'
p66
sa(dp67
g4
S'tag_Ele_pt > 30 && abs(tag_sc_eta) < 2.17 && el_q*tag_Ele_q < 0 && truePU >= 30.000000 && truePU < 40.000000 && fabs(el_sc_eta) >= 1.444200 && fabs(el_sc_eta) < 2.500000 && tag_Ele_trigMVA > 0.92 && sqrt( 2*event_met_pfmet*tag_Ele_pt*(1-cos(event_met_pfphi-tag_Ele_phi))) < 45 '
p68
sg6
S'bin08_truePU_30p00To40p00_fabs(el_sc_eta)_1p44To2p50'
p69
sg8
(dp70
g10
(dp71
g12
F2.5
sg13
F1.4441999999999999
ssg14
(dp72
g12
I40
sg13
I30
sssg16
S'; 30.000 < truePU < 40.000; 1.444 < fabs(el_sc_eta) < 2.500'
p73
sa(dp74
g4
S'tag_Ele_pt > 30 && abs(tag_sc_eta) < 2.17 && el_q*tag_Ele_q < 0 && truePU >= 40.000000 && truePU < 50.000000 && fabs(el_sc_eta) >= 1.444200 && fabs(el_sc_eta) < 2.500000 && tag_Ele_trigMVA > 0.92 && sqrt( 2*event_met_pfmet*tag_Ele_pt*(1-cos(event_met_pfphi-tag_Ele_phi))) < 45 '
p75
sg6
S'bin09_truePU_40p00To50p00_fabs(el_sc_eta)_1p44To2p50'
p76
sg8
(dp77
g10
(dp78
g12
F2.5
sg13
F1.4441999999999999
ssg14
(dp79
g12
I50
sg13
I40
sssg16
S'; 40.000 < truePU < 50.000; 1.444 < fabs(el_sc_eta) < 2.500'
p80
sa(dp81
g4
S'tag_Ele_pt > 30 && abs(tag_sc_eta) < 2.17 && el_q*tag_Ele_q < 0 && truePU >= 50.000000 && truePU < 60.000000 && fabs(el_sc_eta) >= 1.444200 && fabs(el_sc_eta) < 2.500000'
p82
sg6
S'bin10_truePU_50p00To60p00_fabs(el_sc_eta)_1p44To2p50'
p83
sg8
(dp84
g10
(dp85
g12
F2.5
sg13
F1.4441999999999999
ssg14
(dp86
g12
I60
sg13
I50
sssg16
S'; 50.000 < truePU < 60.000; 1.444 < fabs(el_sc_eta) < 2.500'
p87
sa(dp88
g4
S'tag_Ele_pt > 30 && abs(tag_sc_eta) < 2.17 && el_q*tag_Ele_q < 0 && truePU >= 60.000000 && truePU < 100.000000 && fabs(el_sc_eta) >= 1.444200 && fabs(el_sc_eta) < 2.500000'
p89
sg6
S'bin11_truePU_60p00To100p00_fabs(el_sc_eta)_1p44To2p50'
p90
sg8
(dp91
g10
(dp92
g12
F2.5
sg13
F1.4441999999999999
ssg14
(dp93
g12
I100
sg13
I60
sssg16
S'; 60.000 < truePU < 100.000; 1.444 < fabs(el_sc_eta) < 2.500'
p94
sasg8
(lp95
g14
ag10
as.